; Function Attrs: mustprogress nounwind uwtable
define hidden void @_ZN17BarrierSetNMethod6disarmEP7nmethod(ptr noundef nonnull align 8 dereferenceable(12) %0, ptr noundef %1) local_unnamed_addr #0 align 2 {
  %3 = load ptr, ptr %0, align 8
  %4 = getelementptr inbounds i8, ptr %3, i64 16
  %5 = load ptr, ptr %4, align 8
  %6 = tail call noundef ptr %5(ptr noundef nonnull align 8 dereferenceable(12) %0) #8
  %7 = load i32, ptr %6, align 4
  tail call void @_ZN17BarrierSetNMethod15set_guard_valueEP7nmethodi(ptr noundef nonnull align 8 dereferenceable(12) %0, ptr noundef %1, i32 noundef %7) #8
  ret void
}